; Function Attrs: mustprogress nofree nounwind uwtable
define dso_local noundef zeroext i1 @_ZN5cmsys11SystemTools13FileIsSymlinkERKNSt7__cxx1112basic_stringIcSt11char_traitsIcESaIcEEE(ptr noundef nonnull readonly align 8 captures(none) dereferenceable(32) %0) local_unnamed_addr #3 align 2 {
  %2 = alloca %struct.stat, align 8
  call void @llvm.lifetime.start.p0(i64 144, ptr nonnull %2) #39
  %3 = load ptr, ptr %0, align 8, !tbaa !21
  %4 = call i32 @lstat(ptr noundef %3, ptr noundef nonnull %2) #39
  %5 = icmp eq i32 %4, 0
  %6 = getelementptr inbounds nuw i8, ptr %2, i64 24
  %7 = load i32, ptr %6, align 8
  %8 = and i32 %7, 61440
  %9 = icmp eq i32 %8, 40960
  %10 = select i1 %5, i1 %9, i1 false
  call void @llvm.lifetime.end.p0(i64 144, ptr nonnull %2) #39
  ret i1 %10
}